target datalayout = "e-m:e-p270:32:32-p271:32:32-p272:64:64-i64:64-i128:128-f80:128-n8:16:32:64-S128"
target triple = "x86_64-pc-linux-gnu"

@.str.12 = private unnamed_addr constant [70 x i8] c"\0AidasFoodWeb_bnd: Predator-prey DAE serial example problem for IDA \0A\0A\00", align 1
@.str.13 = private unnamed_addr constant [25 x i8] c"Number of species ns: %d\00", align 1
@.str.14 = private unnamed_addr constant [30 x i8] c"     Mesh dimensions: %d x %d\00", align 1
@.str.15 = private unnamed_addr constant [22 x i8] c"     System size: %d\0A\00", align 1
@.str.16 = private unnamed_addr constant [46 x i8] c"Tolerance parameters:  rtol = %g   atol = %g\0A\00", align 1
@.str.17 = private unnamed_addr constant [58 x i8] c"Linear solver: BAND,  Band parameters mu = %ld, ml = %ld\0A\00", align 1
@.str.18 = private unnamed_addr constant [60 x i8] c"CalcIC called to correct initial predator concentrations.\0A\0A\00", align 1
@.str.19 = private unnamed_addr constant [61 x i8] c"-----------------------------------------------------------\0A\00", align 1
@.str.20 = private unnamed_addr constant [34 x i8] c"  t        bottom-left  top-right\00", align 1
@.str.21 = private unnamed_addr constant [21 x i8] c"    | nst  k      h\0A\00", align 1
@.str.22 = private unnamed_addr constant [62 x i8] c"-----------------------------------------------------------\0A\0A\00", align 1

; Function Attrs: nounwind uwtable
define internal void @PrintHeader(i64 noundef %0, i64 noundef %1, double noundef %2, double noundef %3) #0 {
  %5 = alloca i64, align 8
  %6 = alloca i64, align 8
  %7 = alloca double, align 8
  %8 = alloca double, align 8
  store i64 %0, ptr %5, align 8, !tbaa !25
  store i64 %1, ptr %6, align 8, !tbaa !25
  store double %2, ptr %7, align 8, !tbaa !24
  store double %3, ptr %8, align 8, !tbaa !24
  %9 = call i32 (ptr, ...) @printf(ptr noundef @.str.12)
  %10 = call i32 (ptr, ...) @printf(ptr noundef @.str.13, i32 noundef 2)
  %11 = call i32 (ptr, ...) @printf(ptr noundef @.str.14, i32 noundef 20, i32 noundef 20)
  %12 = call i32 (ptr, ...) @printf(ptr noundef @.str.15, i32 noundef 800)
  %13 = load double, ptr %7, align 8, !tbaa !24
  %14 = load double, ptr %8, align 8, !tbaa !24
  %15 = call i32 (ptr, ...) @printf(ptr noundef @.str.16, double noundef %13, double noundef %14)
  %16 = load i64, ptr %5, align 8, !tbaa !25
  %17 = load i64, ptr %6, align 8, !tbaa !25
  %18 = call i32 (ptr, ...) @printf(ptr noundef @.str.17, i64 noundef %16, i64 noundef %17)
  %19 = call i32 (ptr, ...) @printf(ptr noundef @.str.18)
  %20 = call i32 (ptr, ...) @printf(ptr noundef @.str.19)
  %21 = call i32 (ptr, ...) @printf(ptr noundef @.str.20)
  %22 = call i32 (ptr, ...) @printf(ptr noundef @.str.21)
  %23 = call i32 (ptr, ...) @printf(ptr noundef @.str.22)
  ret void
}